target datalayout = "e-m:e-p270:32:32-p271:32:32-p272:64:64-i64:64-i128:128-f80:128-n8:16:32:64-S128"
target triple = "x86_64-pc-linux-gnu"

%struct.ggml_hash_set = type { i64, ptr, ptr }
%struct.ggml_cgraph = type { i32, i32, i32, ptr, ptr, ptr, ptr, %struct.ggml_hash_set, i32 }

; Function Attrs: inlinehint nounwind uwtable
define internal i64 @ggml_hash(ptr noundef %0) #7 {
  %2 = alloca ptr, align 8
  store ptr %0, ptr %2, align 8, !tbaa !54
  %3 = load ptr, ptr %2, align 8, !tbaa !54
  %4 = ptrtoint ptr %3 to i64
  %5 = lshr i64 %4, 4
  ret i64 %5
}

; Function Attrs: inlinehint nounwind uwtable
define internal zeroext i1 @ggml_bitset_get(ptr noundef %0, i64 noundef %1) #7 {
  %3 = alloca ptr, align 8
  %4 = alloca i64, align 8
  store ptr %0, ptr %3, align 8, !tbaa !105
  store i64 %1, ptr %4, align 8, !tbaa !19
  %5 = load ptr, ptr %3, align 8, !tbaa !105
  %6 = load i64, ptr %4, align 8, !tbaa !19
  %7 = lshr i64 %6, 5
  %8 = getelementptr inbounds nuw i32, ptr %5, i64 %7
  %9 = load i32, ptr %8, align 4, !tbaa !8
  %10 = load i64, ptr %4, align 8, !tbaa !19
  %11 = and i64 %10, 31
  %12 = trunc i64 %11 to i32
  %13 = shl i32 1, %12
  %14 = and i32 %9, %13
  %15 = icmp ne i32 %14, 0
  %16 = xor i1 %15, true
  %17 = xor i1 %16, true
  ret i1 %17
}

; Function Attrs: nounwind uwtable
define internal i64 @ggml_hash_find(ptr noundef %0, ptr noundef %1) #5 {
  %3 = alloca i64, align 8
  %4 = alloca ptr, align 8
  %5 = alloca ptr, align 8
  %6 = alloca i64, align 8
  %7 = alloca i64, align 8
  %8 = alloca i32, align 4
  store ptr %0, ptr %4, align 8, !tbaa !127
  store ptr %1, ptr %5, align 8, !tbaa !54
  call void @llvm.lifetime.start.p0(i64 8, ptr %6) #14
  %9 = load ptr, ptr %5, align 8, !tbaa !54
  %10 = call i64 @ggml_hash(ptr noundef %9)
  %11 = load ptr, ptr %4, align 8, !tbaa !127
  %12 = getelementptr inbounds nuw %struct.ggml_hash_set, ptr %11, i32 0, i32 0
  %13 = load i64, ptr %12, align 8, !tbaa !120
  %14 = urem i64 %10, %13
  store i64 %14, ptr %6, align 8, !tbaa !19
  call void @llvm.lifetime.start.p0(i64 8, ptr %7) #14
  %15 = load i64, ptr %6, align 8, !tbaa !19
  store i64 %15, ptr %7, align 8, !tbaa !19
  br label %16

16:                                               ; preds = %44, %2
  %17 = load ptr, ptr %4, align 8, !tbaa !127
  %18 = getelementptr inbounds nuw %struct.ggml_hash_set, ptr %17, i32 0, i32 1
  %19 = load ptr, ptr %18, align 8, !tbaa !125
  %20 = load i64, ptr %7, align 8, !tbaa !19
  %21 = call zeroext i1 @ggml_bitset_get(ptr noundef %19, i64 noundef %20)
  br i1 %21, label %22, label %31

22:                                               ; preds = %16
  %23 = load ptr, ptr %4, align 8, !tbaa !127
  %24 = getelementptr inbounds nuw %struct.ggml_hash_set, ptr %23, i32 0, i32 2
  %25 = load ptr, ptr %24, align 8, !tbaa !124
  %26 = load i64, ptr %7, align 8, !tbaa !19
  %27 = getelementptr inbounds nuw ptr, ptr %25, i64 %26
  %28 = load ptr, ptr %27, align 8, !tbaa !54
  %29 = load ptr, ptr %5, align 8, !tbaa !54
  %30 = icmp ne ptr %28, %29
  br label %31

31:                                               ; preds = %22, %16
  %32 = phi i1 [ false, %16 ], [ %30, %22 ]
  br i1 %32, label %33, label %45

33:                                               ; preds = %31
  %34 = load i64, ptr %7, align 8, !tbaa !19
  %35 = add i64 %34, 1
  %36 = load ptr, ptr %4, align 8, !tbaa !127
  %37 = getelementptr inbounds nuw %struct.ggml_hash_set, ptr %36, i32 0, i32 0
  %38 = load i64, ptr %37, align 8, !tbaa !120
  %39 = urem i64 %35, %38
  store i64 %39, ptr %7, align 8, !tbaa !19
  %40 = load i64, ptr %7, align 8, !tbaa !19
  %41 = load i64, ptr %6, align 8, !tbaa !19
  %42 = icmp eq i64 %40, %41
  br i1 %42, label %43, label %44

43:                                               ; preds = %33
  store i64 -1, ptr %3, align 8
  store i32 1, ptr %8, align 4
  br label %47

44:                                               ; preds = %33
  br label %16, !llvm.loop !144

45:                                               ; preds = %31
  %46 = load i64, ptr %7, align 8, !tbaa !19
  store i64 %46, ptr %3, align 8
  store i32 1, ptr %8, align 4
  br label %47

47:                                               ; preds = %45, %43
  call void @llvm.lifetime.end.p0(i64 8, ptr %7) #14
  call void @llvm.lifetime.end.p0(i64 8, ptr %6) #14
  %48 = load i64, ptr %3, align 8
  ret i64 %48
}

; Function Attrs: nounwind uwtable
define ptr @ggml_graph_get_grad_acc(ptr noundef %0, ptr noundef %1) #5 {
  %3 = alloca ptr, align 8
  %4 = alloca ptr, align 8
  %5 = alloca i64, align 8
  store ptr %0, ptr %3, align 8, !tbaa !129
  store ptr %1, ptr %4, align 8, !tbaa !54
  call void @llvm.lifetime.start.p0(i64 8, ptr %5) #14
  %6 = load ptr, ptr %3, align 8, !tbaa !129
  %7 = getelementptr inbounds nuw %struct.ggml_cgraph, ptr %6, i32 0, i32 7
  %8 = load ptr, ptr %4, align 8, !tbaa !54
  %9 = call i64 @ggml_hash_find(ptr noundef %7, ptr noundef %8)
  store i64 %9, ptr %5, align 8, !tbaa !19
  %10 = load i64, ptr %5, align 8, !tbaa !19
  %11 = icmp ne i64 %10, -1
  br i1 %11, label %12, label %31

12:                                               ; preds = %2
  %13 = load ptr, ptr %3, align 8, !tbaa !129
  %14 = getelementptr inbounds nuw %struct.ggml_cgraph, ptr %13, i32 0, i32 7
  %15 = getelementptr inbounds nuw %struct.ggml_hash_set, ptr %14, i32 0, i32 1
  %16 = load ptr, ptr %15, align 8, !tbaa !141
  %17 = load i64, ptr %5, align 8, !tbaa !19
  %18 = call zeroext i1 @ggml_bitset_get(ptr noundef %16, i64 noundef %17)
  br i1 %18, label %19, label %31

19:                                               ; preds = %12
  %20 = load ptr, ptr %3, align 8, !tbaa !129
  %21 = getelementptr inbounds nuw %struct.ggml_cgraph, ptr %20, i32 0, i32 5
  %22 = load ptr, ptr %21, align 8, !tbaa !135
  %23 = icmp ne ptr %22, null
  br i1 %23, label %24, label %31

24:                                               ; preds = %19
  %25 = load ptr, ptr %3, align 8, !tbaa !129
  %26 = getelementptr inbounds nuw %struct.ggml_cgraph, ptr %25, i32 0, i32 5
  %27 = load ptr, ptr %26, align 8, !tbaa !135
  %28 = load i64, ptr %5, align 8, !tbaa !19
  %29 = getelementptr inbounds nuw ptr, ptr %27, i64 %28
  %30 = load ptr, ptr %29, align 8, !tbaa !54
  br label %32

31:                                               ; preds = %19, %12, %2
  br label %32

32:                                               ; preds = %31, %24
  %33 = phi ptr [ %30, %24 ], [ null, %31 ]
  call void @llvm.lifetime.end.p0(i64 8, ptr %5) #14
  ret ptr %33
}