; Function Attrs: nofree norecurse nosync nounwind memory(read, inaccessiblemem: none) uwtable
define ptr @ggml_graph_get_grad_acc(ptr noundef readonly captures(none) %0, ptr noundef %1) local_unnamed_addr #24 {
  %3 = getelementptr inbounds nuw i8, ptr %0, i64 48
  %4 = ptrtoint ptr %1 to i64
  %5 = lshr i64 %4, 4
  %6 = load i64, ptr %3, align 8, !tbaa !91
  %7 = urem i64 %5, %6
  %8 = getelementptr inbounds nuw i8, ptr %0, i64 64
  %9 = getelementptr inbounds nuw i8, ptr %0, i64 56
  %10 = load ptr, ptr %9, align 8, !tbaa !97
  br label %11

11:                                               ; preds = %23, %2
  %.0.i = phi i64 [ %7, %2 ], [ %26, %23 ]
  %.0.fr.i = freeze i64 %.0.i
  %12 = lshr i64 %.0.fr.i, 5
  %13 = getelementptr inbounds nuw i32, ptr %10, i64 %12
  %14 = load i32, ptr %13, align 4, !tbaa !8
  %15 = trunc i64 %.0.fr.i to i32
  %16 = and i32 %15, 31
  %17 = shl nuw i32 1, %16
  %18 = and i32 %17, %14
  %.not15.i = icmp eq i32 %18, 0
  br i1 %.not15.i, label %ggml_hash_find.exit.thread, label %19

19:                                               ; preds = %11
  %20 = load ptr, ptr %8, align 8, !tbaa !96
  %21 = getelementptr inbounds nuw ptr, ptr %20, i64 %.0.fr.i
  %22 = load ptr, ptr %21, align 8, !tbaa !81
  %.not.i = icmp eq ptr %22, %1
  br i1 %.not.i, label %ggml_hash_find.exit.thread14, label %23

23:                                               ; preds = %19
  %24 = add i64 %.0.fr.i, 1
  %25 = icmp eq i64 %24, %6
  %26 = select i1 %25, i64 0, i64 %24
  %27 = icmp eq i64 %26, %7
  br i1 %27, label %ggml_hash_find.exit.thread, label %11, !llvm.loop !105

ggml_hash_find.exit.thread14:                     ; preds = %19
  %.not15 = icmp eq i64 %.0.fr.i, -1
  br i1 %.not15, label %ggml_hash_find.exit.thread, label %28

28:                                               ; preds = %ggml_hash_find.exit.thread14
  %29 = getelementptr inbounds nuw i8, ptr %0, i64 32
  %30 = load ptr, ptr %29, align 8, !tbaa !102
  %.not8 = icmp eq ptr %30, null
  br i1 %.not8, label %ggml_hash_find.exit.thread, label %31

31:                                               ; preds = %28
  %32 = getelementptr inbounds nuw ptr, ptr %30, i64 %.0.fr.i
  %33 = load ptr, ptr %32, align 8, !tbaa !81
  br label %ggml_hash_find.exit.thread

ggml_hash_find.exit.thread:                       ; preds = %23, %11, %ggml_hash_find.exit.thread14, %28, %31
  %34 = phi ptr [ %33, %31 ], [ null, %28 ], [ null, %ggml_hash_find.exit.thread14 ], [ null, %11 ], [ null, %23 ]
  ret ptr %34
}